; Function Attrs: mustprogress nofree norecurse nosync nounwind willreturn memory(argmem: read) uwtable
define dso_local i64 @archive_entry_rdev(ptr noundef readonly captures(none) %0) local_unnamed_addr #10 {
  %2 = getelementptr inbounds nuw i8, ptr %0, i64 192
  %3 = load i32, ptr %2, align 8, !tbaa !31
  %4 = and i32 %3, 8192
  %.not = icmp eq i32 %4, 0
  br i1 %.not, label %26, label %5

5:                                                ; preds = %1
  %6 = getelementptr inbounds nuw i8, ptr %0, i64 160
  %7 = load i32, ptr %6, align 8, !tbaa !72
  %.not5 = icmp eq i32 %7, 0
  br i1 %.not5, label %23, label %8

8:                                                ; preds = %5
  %9 = getelementptr inbounds nuw i8, ptr %0, i64 176
  %10 = load i64, ptr %9, align 8, !tbaa !73
  %11 = getelementptr inbounds nuw i8, ptr %0, i64 184
  %12 = load i64, ptr %11, align 8, !tbaa !74
  %13 = shl i64 %10, 8
  %14 = and i64 %13, 1048320
  %15 = shl i64 %10, 32
  %16 = and i64 %15, -17592186044416
  %17 = or disjoint i64 %16, %14
  %18 = and i64 %12, 255
  %19 = or disjoint i64 %17, %18
  %20 = shl i64 %12, 12
  %21 = and i64 %20, 17592184995840
  %22 = or disjoint i64 %19, %21
  br label %26

23:                                               ; preds = %5
  %24 = getelementptr inbounds nuw i8, ptr %0, i64 168
  %25 = load i64, ptr %24, align 8, !tbaa !75
  br label %26

26:                                               ; preds = %1, %23, %8
  %.0 = phi i64 [ %22, %8 ], [ %25, %23 ], [ 0, %1 ]
  ret i64 %.0
}